Certificate:
    Data:
        Version: 3 (0x2)
        Serial Number:
            e0:a9:c3:04:8c:33:c7:9e
    Signature Algorithm: ecdsa-with-SHA256
        Issuer: C = FR, L = Limoges, O = TMC, OU = IOT, CN = mqtt.server
        Validity
            Not Before: Jan 28 17:19:17 2019 GMT
            Not After : Feb 27 17:19:17 2019 GMT
        Subject: C = FR, L = Limoges, O = TMC, OU = IOT, CN = mqtt.server
        Subject Public Key Info:
            Public Key Algorithm: id-ecPublicKey
                Public-Key: (256 bit)
                pub:
                    04:83:13:5b:e6:78:53:f7:d1:b6:2b:6a:31:2b:6b:
                    f4:da:1b:71:9c:89:4b:d4:85:1a:49:6f:ec:8d:4f:
                    64:98:b0:1e:29:3f:1c:42:3f:f4:30:e2:72:95:a3:
                    a3:45:c1:ad:40:00:c6:50:14:ad:12:0c:ff:ad:16:
                    30:46:d1:27:ba
                ASN1 OID: prime256v1
                NIST CURVE: P-256
        X509v3 extensions:
            X509v3 Basic Constraints: 
                CA:TRUE
    Signature Algorithm: ecdsa-with-SHA256
         30:46:02:21:00:d6:ad:3b:68:c9:40:8c:3c:b8:f5:0f:14:ec:
         2b:e0:0a:8e:f0:9d:a4:23:96:d7:57:f4:1f:4f:b1:6a:24:0c:
         03:02:21:00:b3:c7:88:0f:a2:c3:01:bc:b3:50:24:a1:1e:48:
         e9:ef:eb:60:e7:42:00:71:59:5e:56:74:1b:b1:c3:2e:10:fd
-----BEGIN CERTIFICATE-----
MIIBqjCCAU+gAwIBAgIJAOCpwwSMM8eeMAoGCCqGSM49BAMCMFExCzAJBgNVBAYT
AkZSMRAwDgYDVQQHDAdMaW1vZ2VzMQwwCgYDVQQKDANUTUMxDDAKBgNVBAsMA0lP
VDEUMBIGA1UEAwwLbXF0dC5zZXJ2ZXIwHhcNMTkwMTI4MTcxOTE3WhcNMTkwMjI3
MTcxOTE3WjBRMQswCQYDVQQGEwJGUjEQMA4GA1UEBwwHTGltb2dlczEMMAoGA1UE
CgwDVE1DMQwwCgYDVQQLDANJT1QxFDASBgNVBAMMC21xdHQuc2VydmVyMFkwEwYH
KoZIzj0CAQYIKoZIzj0DAQcDQgAEgxNb5nhT99G2K2oxK2v02htxnIlL1IUaSW/s
jU9kmLAeKT8cQj/0MOJylaOjRcGtQADGUBStEgz/rRYwRtEnuqMQMA4wDAYDVR0T
BAUwAwEB/zAKBggqhkjOPQQDAgNJADBGAiEA1q07aMlAjDy49Q8U7CvgCo7wnaQj
ltdX9B9PsWokDAMCIQCzx4gPosMBvLNQJKEeSOnv62DnQgBxWV5WdBuxwy4Q/Q==
-----END CERTIFICATE-----
